; Function Attrs: mustprogress uwtable
define noundef zeroext i1 @_ZNK2cv8FileNode6isRealEv(ptr noundef nonnull readonly align 8 captures(none) dereferenceable(24) %0) local_unnamed_addr #13 align 2 {
  %2 = load ptr, ptr %0, align 8, !tbaa !250
  %.not.i.i = icmp eq ptr %2, null
  br i1 %.not.i.i, label %_ZNK2cv8FileNode4typeEv.exit, label %_ZNK2cv8FileNode3ptrEv.exit.i

_ZNK2cv8FileNode3ptrEv.exit.i:                    ; preds = %1
  %3 = getelementptr inbounds nuw i8, ptr %0, i64 8
  %4 = load i64, ptr %3, align 8, !tbaa !253
  %5 = getelementptr inbounds nuw i8, ptr %0, i64 16
  %6 = load i64, ptr %5, align 8, !tbaa !254
  %7 = tail call noundef ptr @_ZNK2cv11FileStorage4Impl10getNodePtrEmm(ptr noundef nonnull align 8 dereferenceable(700) %2, i64 noundef %4, i64 noundef %6)
  %.not.i = icmp eq ptr %7, null
  br i1 %.not.i, label %_ZNK2cv8FileNode4typeEv.exit, label %8

8:                                                ; preds = %_ZNK2cv8FileNode3ptrEv.exit.i
  %9 = load i8, ptr %7, align 1, !tbaa !5
  %10 = and i8 %9, 7
  %11 = icmp eq i8 %10, 2
  br label %_ZNK2cv8FileNode4typeEv.exit

_ZNK2cv8FileNode4typeEv.exit:                     ; preds = %1, %_ZNK2cv8FileNode3ptrEv.exit.i, %8
  %.0.i = phi i1 [ %11, %8 ], [ false, %_ZNK2cv8FileNode3ptrEv.exit.i ], [ false, %1 ]
  ret i1 %.0.i
}